; Function Attrs: mustprogress uwtable
define void @_ZN5Ipopt15ExpansionMatrixC2EPKNS_20ExpansionMatrixSpaceE(ptr noundef nonnull align 8 dereferenceable(80) initializes((0, 12), (16, 48)) %0, ptr noundef %1) unnamed_addr #0 align 2 personality ptr @__gxx_personality_v0 {
  %3 = getelementptr inbounds nuw i8, ptr %0, i64 8
  store i32 0, ptr %3, align 8, !tbaa !3
  %4 = getelementptr inbounds nuw i8, ptr %0, i64 16
  %5 = getelementptr inbounds nuw i8, ptr %0, i64 24
  tail call void @llvm.memset.p0.i64(ptr noundef nonnull align 8 dereferenceable(24) %5, i8 0, i64 24, i1 false)
  store ptr getelementptr inbounds nuw inrange(-16, 16) (i8, ptr @_ZTVN5Ipopt12TaggedObjectE, i64 16), ptr %0, align 8, !tbaa !8
  store ptr getelementptr inbounds nuw inrange(-16, 16) (i8, ptr @_ZTVN5Ipopt12TaggedObjectE, i64 48), ptr %4, align 8, !tbaa !8
  invoke void @_ZN5Ipopt12TaggedObject13ObjectChangedEv(ptr noundef nonnull align 8 dereferenceable(69) %0)
          to label %_ZN5Ipopt12TaggedObjectC2Ev.exit.i unwind label %6

6:                                                ; preds = %2
  %7 = landingpad { ptr, i32 }
          cleanup
  tail call void @_ZN5Ipopt7SubjectD2Ev(ptr noundef nonnull align 8 dereferenceable(32) %4) #12
  store ptr getelementptr inbounds nuw inrange(-16, 16) (i8, ptr @_ZTVN5Ipopt16ReferencedObjectE, i64 16), ptr %0, align 8, !tbaa !8
  resume { ptr, i32 } %7

_ZN5Ipopt12TaggedObjectC2Ev.exit.i:               ; preds = %2
  store ptr getelementptr inbounds nuw inrange(-16, 96) (i8, ptr @_ZTVN5Ipopt6MatrixE, i64 16), ptr %0, align 8, !tbaa !8
  store ptr getelementptr inbounds nuw inrange(-16, 16) (i8, ptr @_ZTVN5Ipopt6MatrixE, i64 128), ptr %4, align 8, !tbaa !8
  %.not.i.i.i = icmp eq ptr %1, null
  br i1 %.not.i.i.i, label %_ZN5Ipopt6MatrixC2EPKNS_11MatrixSpaceE.exit, label %8

8:                                                ; preds = %_ZN5Ipopt12TaggedObjectC2Ev.exit.i
  %9 = getelementptr inbounds nuw i8, ptr %1, i64 8
  %10 = load i32, ptr %9, align 8, !tbaa !3
  %11 = add nsw i32 %10, 1
  store i32 %11, ptr %9, align 8, !tbaa !3
  br label %_ZN5Ipopt6MatrixC2EPKNS_11MatrixSpaceE.exit

_ZN5Ipopt6MatrixC2EPKNS_11MatrixSpaceE.exit:      ; preds = %_ZN5Ipopt12TaggedObjectC2Ev.exit.i, %8
  %12 = getelementptr inbounds nuw i8, ptr %0, i64 56
  store ptr %1, ptr %12, align 8, !tbaa !10
  %13 = getelementptr inbounds nuw i8, ptr %0, i64 64
  store i32 0, ptr %13, align 8, !tbaa !14
  store ptr getelementptr inbounds nuw inrange(-16, 96) (i8, ptr @_ZTVN5Ipopt15ExpansionMatrixE, i64 16), ptr %0, align 8, !tbaa !8
  store ptr getelementptr inbounds nuw inrange(-16, 16) (i8, ptr @_ZTVN5Ipopt15ExpansionMatrixE, i64 128), ptr %4, align 8, !tbaa !8
  %14 = getelementptr inbounds nuw i8, ptr %0, i64 72
  store ptr %1, ptr %14, align 8, !tbaa !25
  ret void
}